target datalayout = "e-m:e-p270:32:32-p271:32:32-p272:64:64-i64:64-i128:128-f80:128-n8:16:32:64-S128"
target triple = "x86_64-pc-linux-gnu"

@.str.14 = private unnamed_addr constant [27 x i8] c"../openssl/test/danetest.c\00", align 1
@.str.51 = private unnamed_addr constant [37 x i8] c"ret = OPENSSL_malloc(strlen(in) / 2)\00", align 1

; Function Attrs: nounwind uwtable
define internal i64 @hexdecode(ptr noundef %0, ptr noundef %1) #0 {
  %3 = alloca i64, align 8
  %4 = alloca ptr, align 8
  %5 = alloca ptr, align 8
  %6 = alloca ptr, align 8
  %7 = alloca ptr, align 8
  %8 = alloca ptr, align 8
  %9 = alloca i8, align 1
  %10 = alloca i32, align 4
  %11 = alloca i32, align 4
  %12 = alloca i32, align 4
  store ptr %0, ptr %4, align 8, !tbaa !4
  store ptr %1, ptr %5, align 8, !tbaa !38
  call void @llvm.lifetime.start.p0(i64 8, ptr %6) #7
  %13 = load ptr, ptr %5, align 8, !tbaa !38
  store ptr %13, ptr %6, align 8, !tbaa !47
  call void @llvm.lifetime.start.p0(i64 8, ptr %7) #7
  call void @llvm.lifetime.start.p0(i64 8, ptr %8) #7
  call void @llvm.lifetime.start.p0(i64 1, ptr %9) #7
  call void @llvm.lifetime.start.p0(i64 4, ptr %10) #7
  store i32 0, ptr %10, align 4, !tbaa !13
  %14 = load ptr, ptr %4, align 8, !tbaa !4
  %15 = call i64 @strlen(ptr noundef %14) #8
  %16 = udiv i64 %15, 2
  %17 = call noalias ptr @CRYPTO_malloc(i64 noundef %16, ptr noundef @.str.14, i32 noundef 185)
  store ptr %17, ptr %7, align 8, !tbaa !4
  %18 = call i32 @test_ptr(ptr noundef @.str.14, i32 noundef 185, ptr noundef @.str.51, ptr noundef %17)
  %19 = icmp ne i32 %18, 0
  br i1 %19, label %21, label %20

20:                                               ; preds = %2
  store i64 -1, ptr %3, align 8
  store i32 1, ptr %11, align 4
  br label %87

21:                                               ; preds = %2
  %22 = load ptr, ptr %7, align 8, !tbaa !4
  store ptr %22, ptr %8, align 8, !tbaa !4
  store i8 0, ptr %9, align 1, !tbaa !15
  br label %23

23:                                               ; preds = %72, %21
  %24 = load ptr, ptr %4, align 8, !tbaa !4
  %25 = load i8, ptr %24, align 1, !tbaa !15
  %26 = icmp ne i8 %25, 0
  br i1 %26, label %27, label %75

27:                                               ; preds = %23
  call void @llvm.lifetime.start.p0(i64 4, ptr %12) #7
  %28 = call ptr @__ctype_b_loc() #9
  %29 = load ptr, ptr %28, align 8, !tbaa !23
  %30 = load ptr, ptr %4, align 8, !tbaa !4
  %31 = load i8, ptr %30, align 1, !tbaa !15
  %32 = zext i8 %31 to i32
  %33 = sext i32 %32 to i64
  %34 = getelementptr inbounds i16, ptr %29, i64 %33
  %35 = load i16, ptr %34, align 2, !tbaa !25
  %36 = zext i16 %35 to i32
  %37 = and i32 %36, 8192
  %38 = icmp ne i32 %37, 0
  br i1 %38, label %39, label %40

39:                                               ; preds = %27
  store i32 4, ptr %11, align 4
  br label %69

40:                                               ; preds = %27
  %41 = load ptr, ptr %4, align 8, !tbaa !4
  %42 = load i8, ptr %41, align 1, !tbaa !15
  %43 = call i32 @OPENSSL_hexchar2int(i8 noundef zeroext %42)
  store i32 %43, ptr %12, align 4, !tbaa !13
  %44 = load i32, ptr %12, align 4, !tbaa !13
  %45 = icmp slt i32 %44, 0
  br i1 %45, label %46, label %48

46:                                               ; preds = %40
  %47 = load ptr, ptr %7, align 8, !tbaa !4
  call void @CRYPTO_free(ptr noundef %47, ptr noundef @.str.14, i32 noundef 196)
  store i64 0, ptr %3, align 8
  store i32 1, ptr %11, align 4
  br label %69

48:                                               ; preds = %40
  %49 = load i32, ptr %12, align 4, !tbaa !13
  %50 = trunc i32 %49 to i8
  %51 = sext i8 %50 to i32
  %52 = load i8, ptr %9, align 1, !tbaa !15
  %53 = zext i8 %52 to i32
  %54 = or i32 %53, %51
  %55 = trunc i32 %54 to i8
  store i8 %55, ptr %9, align 1, !tbaa !15
  %56 = load i32, ptr %10, align 4, !tbaa !13
  %57 = xor i32 %56, 1
  store i32 %57, ptr %10, align 4, !tbaa !13
  %58 = icmp eq i32 %57, 0
  br i1 %58, label %59, label %63

59:                                               ; preds = %48
  %60 = load i8, ptr %9, align 1, !tbaa !15
  %61 = load ptr, ptr %8, align 8, !tbaa !4
  %62 = getelementptr inbounds nuw i8, ptr %61, i32 1
  store ptr %62, ptr %8, align 8, !tbaa !4
  store i8 %60, ptr %61, align 1, !tbaa !15
  store i8 0, ptr %9, align 1, !tbaa !15
  br label %68

63:                                               ; preds = %48
  %64 = load i8, ptr %9, align 1, !tbaa !15
  %65 = zext i8 %64 to i32
  %66 = shl i32 %65, 4
  %67 = trunc i32 %66 to i8
  store i8 %67, ptr %9, align 1, !tbaa !15
  br label %68

68:                                               ; preds = %63, %59
  store i32 0, ptr %11, align 4
  br label %69

69:                                               ; preds = %68, %46, %39
  call void @llvm.lifetime.end.p0(i64 4, ptr %12) #7
  %70 = load i32, ptr %11, align 4
  switch i32 %70, label %87 [
    i32 0, label %71
    i32 4, label %72
  ]

71:                                               ; preds = %69
  br label %72

72:                                               ; preds = %71, %69
  %73 = load ptr, ptr %4, align 8, !tbaa !4
  %74 = getelementptr inbounds nuw i8, ptr %73, i32 1
  store ptr %74, ptr %4, align 8, !tbaa !4
  br label %23, !llvm.loop !49

75:                                               ; preds = %23
  %76 = load i32, ptr %10, align 4, !tbaa !13
  %77 = icmp ne i32 %76, 0
  br i1 %77, label %78, label %80

78:                                               ; preds = %75
  %79 = load ptr, ptr %7, align 8, !tbaa !4
  call void @CRYPTO_free(ptr noundef %79, ptr noundef @.str.14, i32 noundef 208)
  store i64 0, ptr %3, align 8
  store i32 1, ptr %11, align 4
  br label %87

80:                                               ; preds = %75
  %81 = load ptr, ptr %8, align 8, !tbaa !4
  %82 = load ptr, ptr %7, align 8, !tbaa !4
  %83 = load ptr, ptr %6, align 8, !tbaa !47
  store ptr %82, ptr %83, align 8, !tbaa !4
  %84 = ptrtoint ptr %81 to i64
  %85 = ptrtoint ptr %82 to i64
  %86 = sub i64 %84, %85
  store i64 %86, ptr %3, align 8
  store i32 1, ptr %11, align 4
  br label %87

87:                                               ; preds = %80, %78, %69, %20
  call void @llvm.lifetime.end.p0(i64 4, ptr %10) #7
  call void @llvm.lifetime.end.p0(i64 1, ptr %9) #7
  call void @llvm.lifetime.end.p0(i64 8, ptr %8) #7
  call void @llvm.lifetime.end.p0(i64 8, ptr %7) #7
  call void @llvm.lifetime.end.p0(i64 8, ptr %6) #7
  %88 = load i64, ptr %3, align 8
  ret i64 %88
}