; Function Attrs: nounwind uwtable
define internal i64 @hexdecode(ptr noundef readonly captures(none) %0, ptr noundef writeonly captures(none) %1) #1 {
  %3 = tail call i64 @strlen(ptr noundef nonnull dereferenceable(1) %0) #11
  %4 = lshr i64 %3, 1
  %5 = tail call noalias ptr @CRYPTO_malloc(i64 noundef %4, ptr noundef nonnull @.str.14, i32 noundef 185) #9
  %6 = tail call i32 @test_ptr(ptr noundef nonnull @.str.14, i32 noundef 185, ptr noundef nonnull @.str.51, ptr noundef %5) #9
  %.not = icmp eq i32 %6, 0
  br i1 %.not, label %38, label %.preheader

.preheader:                                       ; preds = %2
  %7 = load i8, ptr %0, align 1, !tbaa !9
  %.not3345 = icmp eq i8 %7, 0
  br i1 %.not3345, label %._crit_edge.thread, label %.lr.ph

.lr.ph:                                           ; preds = %.preheader
  %8 = tail call ptr @__ctype_b_loc() #10
  br label %.outer

.outer:                                           ; preds = %.thread, %.lr.ph
  %.ph = phi i8 [ %32, %.thread ], [ %7, %.lr.ph ]
  %.02747.ph = phi ptr [ %30, %.thread ], [ %5, %.lr.ph ]
  %.03046.ph = phi ptr [ %31, %.thread ], [ %0, %.lr.ph ]
  br label %9

9:                                                ; preds = %.outer, %26
  %10 = phi i8 [ %28, %26 ], [ %.ph, %.outer ]
  %.02249 = phi i32 [ %.123.ph, %26 ], [ 0, %.outer ]
  %.02448 = phi i8 [ %.125.ph, %26 ], [ 0, %.outer ]
  %.03046 = phi ptr [ %27, %26 ], [ %.03046.ph, %.outer ]
  %11 = load ptr, ptr %8, align 8, !tbaa !14
  %12 = zext i8 %10 to i64
  %13 = getelementptr inbounds nuw i16, ptr %11, i64 %12
  %14 = load i16, ptr %13, align 2, !tbaa !16
  %15 = and i16 %14, 8192
  %.not35 = icmp eq i16 %15, 0
  br i1 %.not35, label %16, label %26

16:                                               ; preds = %9
  %17 = tail call i32 @OPENSSL_hexchar2int(i8 noundef zeroext %10) #9
  %18 = icmp slt i32 %17, 0
  br i1 %18, label %25, label %19

19:                                               ; preds = %16
  %20 = trunc i32 %17 to i8
  %21 = icmp eq i32 %.02249, 1
  br i1 %21, label %.thread, label %22

22:                                               ; preds = %19
  %23 = xor i32 %.02249, 1
  %24 = shl i8 %20, 4
  br label %26

25:                                               ; preds = %16
  tail call void @CRYPTO_free(ptr noundef %5, ptr noundef nonnull @.str.14, i32 noundef 196) #9
  br label %38

26:                                               ; preds = %9, %22
  %.125.ph = phi i8 [ %24, %22 ], [ %.02448, %9 ]
  %.123.ph = phi i32 [ %23, %22 ], [ %.02249, %9 ]
  %27 = getelementptr inbounds nuw i8, ptr %.03046, i64 1
  %28 = load i8, ptr %27, align 1, !tbaa !9
  %.not33 = icmp eq i8 %28, 0
  br i1 %.not33, label %._crit_edge, label %9, !llvm.loop !31

.thread:                                          ; preds = %19
  %29 = or i8 %.02448, %20
  %30 = getelementptr inbounds nuw i8, ptr %.02747.ph, i64 1
  store i8 %29, ptr %.02747.ph, align 1, !tbaa !9
  %31 = getelementptr inbounds nuw i8, ptr %.03046, i64 1
  %32 = load i8, ptr %31, align 1, !tbaa !9
  %.not3357 = icmp eq i8 %32, 0
  br i1 %.not3357, label %._crit_edge.thread, label %.outer, !llvm.loop !31

._crit_edge:                                      ; preds = %26
  %33 = icmp eq i32 %.123.ph, 0
  br i1 %33, label %._crit_edge.thread, label %34

34:                                               ; preds = %._crit_edge
  tail call void @CRYPTO_free(ptr noundef %5, ptr noundef nonnull @.str.14, i32 noundef 208) #9
  br label %38

._crit_edge.thread:                               ; preds = %.thread, %.preheader, %._crit_edge
  %.027.lcssa53 = phi ptr [ %.02747.ph, %._crit_edge ], [ %5, %.preheader ], [ %30, %.thread ]
  store ptr %5, ptr %1, align 8, !tbaa !4
  %35 = ptrtoint ptr %.027.lcssa53 to i64
  %36 = ptrtoint ptr %5 to i64
  %37 = sub i64 %35, %36
  br label %38

38:                                               ; preds = %25, %2, %._crit_edge.thread, %34
  %.0 = phi i64 [ 0, %25 ], [ 0, %34 ], [ %37, %._crit_edge.thread ], [ -1, %2 ]
  ret i64 %.0
}